target datalayout = "e-m:e-p270:32:32-p271:32:32-p272:64:64-i64:64-i128:128-f80:128-n8:16:32:64-S128"
target triple = "x86_64-pc-linux-gnu"

%struct.RelationData = type { %struct.RelFileLocator, ptr, i32, i32, i8, i8, i8, i8, i8, i32, i32, i32, i32, ptr, ptr, i32, %struct.LockInfoData, ptr, ptr, ptr, ptr, ptr, i8, ptr, ptr, ptr, ptr, ptr, ptr, i32, ptr, i8, ptr, ptr, i32, i8, i32, ptr, i8, ptr, ptr, ptr, ptr, ptr, ptr, ptr, i32, ptr, ptr, ptr, ptr, ptr, ptr, ptr, ptr, ptr, ptr, ptr, ptr, ptr, ptr, ptr, ptr, ptr, ptr, ptr, i32, i8, ptr }
%struct.RelFileLocator = type { i32, i32, i32 }
%struct.LockInfoData = type { %struct.LockRelId }
%struct.LockRelId = type { i32, i32 }
%struct.LOCKTAG = type { i32, i32, i32, i16, i8, i8 }

; Function Attrs: nounwind uwtable
define dso_local i32 @RelationExtensionLockWaiterCount(ptr noundef %0) #0 {
  %2 = alloca ptr, align 8
  %3 = alloca %struct.LOCKTAG, align 4
  store ptr %0, ptr %2, align 8
  call void @llvm.lifetime.start.p0(i64 16, ptr %3) #6
  %4 = load ptr, ptr %2, align 8
  %5 = getelementptr inbounds nuw %struct.RelationData, ptr %4, i32 0, i32 16
  %6 = getelementptr inbounds nuw %struct.LockInfoData, ptr %5, i32 0, i32 0
  %7 = getelementptr inbounds nuw %struct.LockRelId, ptr %6, i32 0, i32 1
  %8 = load i32, ptr %7, align 4
  %9 = getelementptr inbounds nuw %struct.LOCKTAG, ptr %3, i32 0, i32 0
  store i32 %8, ptr %9, align 4
  %10 = load ptr, ptr %2, align 8
  %11 = getelementptr inbounds nuw %struct.RelationData, ptr %10, i32 0, i32 16
  %12 = getelementptr inbounds nuw %struct.LockInfoData, ptr %11, i32 0, i32 0
  %13 = getelementptr inbounds nuw %struct.LockRelId, ptr %12, i32 0, i32 0
  %14 = load i32, ptr %13, align 4
  %15 = getelementptr inbounds nuw %struct.LOCKTAG, ptr %3, i32 0, i32 1
  store i32 %14, ptr %15, align 4
  %16 = getelementptr inbounds nuw %struct.LOCKTAG, ptr %3, i32 0, i32 2
  store i32 0, ptr %16, align 4
  %17 = getelementptr inbounds nuw %struct.LOCKTAG, ptr %3, i32 0, i32 3
  store i16 0, ptr %17, align 4
  %18 = getelementptr inbounds nuw %struct.LOCKTAG, ptr %3, i32 0, i32 4
  store i8 1, ptr %18, align 2
  %19 = getelementptr inbounds nuw %struct.LOCKTAG, ptr %3, i32 0, i32 5
  store i8 1, ptr %19, align 1
  %20 = call i32 @LockWaiterCount(ptr noundef %3)
  call void @llvm.lifetime.end.p0(i64 16, ptr %3) #6
  ret i32 %20
}